target datalayout = "e-m:e-p270:32:32-p271:32:32-p272:64:64-i64:64-i128:128-f80:128-n8:16:32:64-S128"
target triple = "x86_64-pc-linux-gnu"

%struct.lean_object = type { i32, i32 }

@l_Lean_Elab_Tactic_BVDecide_Frontend_Normalize_bv__and___lambda__3___closed__17 = internal global ptr null, align 8

; Function Attrs: alwaysinline nounwind uwtable
define internal void @lean_dec_ref(ptr noundef %0) #0 {
  %2 = alloca ptr, align 8
  store ptr %0, ptr %2, align 8, !tbaa !4
  %3 = load ptr, ptr %2, align 8, !tbaa !4
  %4 = getelementptr inbounds nuw %struct.lean_object, ptr %3, i32 0, i32 0
  %5 = load i32, ptr %4, align 4, !tbaa !13
  %6 = icmp sgt i32 %5, 1
  %7 = zext i1 %6 to i32
  %8 = sext i32 %7 to i64
  %9 = call i64 @llvm.expect.i64(i64 %8, i64 1)
  %10 = icmp ne i64 %9, 0
  br i1 %10, label %11, label %16

11:                                               ; preds = %1
  %12 = load ptr, ptr %2, align 8, !tbaa !4
  %13 = getelementptr inbounds nuw %struct.lean_object, ptr %12, i32 0, i32 0
  %14 = load i32, ptr %13, align 4, !tbaa !13
  %15 = add i32 %14, -1
  store i32 %15, ptr %13, align 4, !tbaa !13
  br label %24

16:                                               ; preds = %1
  %17 = load ptr, ptr %2, align 8, !tbaa !4
  %18 = getelementptr inbounds nuw %struct.lean_object, ptr %17, i32 0, i32 0
  %19 = load i32, ptr %18, align 4, !tbaa !13
  %20 = icmp ne i32 %19, 0
  br i1 %20, label %21, label %23

21:                                               ; preds = %16
  %22 = load ptr, ptr %2, align 8, !tbaa !4
  call void @lean_dec_ref_cold(ptr noundef %22)
  br label %23

23:                                               ; preds = %21, %16
  br label %24

24:                                               ; preds = %23, %11
  ret void
}

; Function Attrs: alwaysinline nounwind uwtable
define internal zeroext i1 @lean_is_scalar(ptr noundef %0) #0 {
  %2 = alloca ptr, align 8
  store ptr %0, ptr %2, align 8, !tbaa !4
  %3 = load ptr, ptr %2, align 8, !tbaa !4
  %4 = ptrtoint ptr %3 to i64
  %5 = and i64 %4, 1
  %6 = icmp eq i64 %5, 1
  ret i1 %6
}

; Function Attrs: inlinehint nounwind uwtable
define internal ptr @lean_box(i64 noundef %0) #4 {
  %2 = alloca i64, align 8
  store i64 %0, ptr %2, align 8, !tbaa !8
  %3 = load i64, ptr %2, align 8, !tbaa !8
  %4 = shl i64 %3, 1
  %5 = or i64 %4, 1
  %6 = inttoptr i64 %5 to ptr
  ret ptr %6
}

; Function Attrs: alwaysinline nounwind uwtable
define internal void @lean_dec(ptr noundef %0) #0 {
  %2 = alloca ptr, align 8
  store ptr %0, ptr %2, align 8, !tbaa !4
  %3 = load ptr, ptr %2, align 8, !tbaa !4
  %4 = call zeroext i1 @lean_is_scalar(ptr noundef %3)
  br i1 %4, label %7, label %5

5:                                                ; preds = %1
  %6 = load ptr, ptr %2, align 8, !tbaa !4
  call void @lean_dec_ref(ptr noundef %6)
  br label %7

7:                                                ; preds = %5, %1
  ret void
}

; Function Attrs: nounwind uwtable
define ptr @l_Lean_Elab_Tactic_BVDecide_Frontend_Normalize_bv__add___lambda__22(i8 noundef zeroext %0, ptr noundef %1, ptr noundef %2, ptr noundef %3, ptr noundef %4, ptr noundef %5, ptr noundef %6, ptr noundef %7, ptr noundef %8, ptr noundef %9) #1 {
  %11 = alloca ptr, align 8
  %12 = alloca i8, align 1
  %13 = alloca ptr, align 8
  %14 = alloca ptr, align 8
  %15 = alloca ptr, align 8
  %16 = alloca ptr, align 8
  %17 = alloca ptr, align 8
  %18 = alloca ptr, align 8
  %19 = alloca ptr, align 8
  %20 = alloca ptr, align 8
  %21 = alloca ptr, align 8
  %22 = alloca ptr, align 8
  %23 = alloca ptr, align 8
  %24 = alloca ptr, align 8
  %25 = alloca ptr, align 8
  %26 = alloca i8, align 1
  %27 = alloca ptr, align 8
  %28 = alloca ptr, align 8
  %29 = alloca i32, align 4
  %30 = alloca ptr, align 8
  %31 = alloca i8, align 1
  %32 = alloca ptr, align 8
  %33 = alloca ptr, align 8
  %34 = alloca ptr, align 8
  %35 = alloca ptr, align 8
  %36 = alloca i8, align 1
  %37 = alloca ptr, align 8
  %38 = alloca ptr, align 8
  %39 = alloca ptr, align 8
  store i8 %0, ptr %12, align 1, !tbaa !10
  store ptr %1, ptr %13, align 8, !tbaa !4
  store ptr %2, ptr %14, align 8, !tbaa !4
  store ptr %3, ptr %15, align 8, !tbaa !4
  store ptr %4, ptr %16, align 8, !tbaa !4
  store ptr %5, ptr %17, align 8, !tbaa !4
  store ptr %6, ptr %18, align 8, !tbaa !4
  store ptr %7, ptr %19, align 8, !tbaa !4
  store ptr %8, ptr %20, align 8, !tbaa !4
  store ptr %9, ptr %21, align 8, !tbaa !4
  br label %40

40:                                               ; preds = %10
  %41 = load i8, ptr %12, align 1, !tbaa !10
  %42 = zext i8 %41 to i32
  %43 = icmp eq i32 %42, 0
  br i1 %43, label %44, label %57

44:                                               ; preds = %40
  call void @llvm.lifetime.start.p0(i64 8, ptr %22) #7
  call void @llvm.lifetime.start.p0(i64 8, ptr %23) #7
  %45 = load ptr, ptr %15, align 8, !tbaa !4
  call void @lean_dec(ptr noundef %45)
  %46 = load ptr, ptr %14, align 8, !tbaa !4
  call void @lean_dec(ptr noundef %46)
  %47 = call ptr @lean_box(i64 noundef 0)
  store ptr %47, ptr %22, align 8, !tbaa !4
  %48 = load ptr, ptr %13, align 8, !tbaa !4
  %49 = load ptr, ptr %22, align 8, !tbaa !4
  %50 = load ptr, ptr %17, align 8, !tbaa !4
  %51 = load ptr, ptr %18, align 8, !tbaa !4
  %52 = load ptr, ptr %19, align 8, !tbaa !4
  %53 = load ptr, ptr %20, align 8, !tbaa !4
  %54 = load ptr, ptr %21, align 8, !tbaa !4
  %55 = call ptr @lean_apply_6(ptr noundef %48, ptr noundef %49, ptr noundef %50, ptr noundef %51, ptr noundef %52, ptr noundef %53, ptr noundef %54)
  store ptr %55, ptr %23, align 8, !tbaa !4
  %56 = load ptr, ptr %23, align 8, !tbaa !4
  store ptr %56, ptr %11, align 8
  call void @llvm.lifetime.end.p0(i64 8, ptr %23) #7
  call void @llvm.lifetime.end.p0(i64 8, ptr %22) #7
  br label %145

57:                                               ; preds = %40
  call void @llvm.lifetime.start.p0(i64 8, ptr %24) #7
  call void @llvm.lifetime.start.p0(i64 8, ptr %25) #7
  call void @llvm.lifetime.start.p0(i64 1, ptr %26) #7
  %58 = load ptr, ptr %15, align 8, !tbaa !4
  %59 = call ptr @lean_box(i64 noundef 0)
  %60 = call ptr @l_Lean_Expr_appArg(ptr noundef %58, ptr noundef %59)
  store ptr %60, ptr %24, align 8, !tbaa !4
  %61 = load ptr, ptr %15, align 8, !tbaa !4
  %62 = call ptr @lean_box(i64 noundef 0)
  %63 = call ptr @l_Lean_Expr_appFnCleanup(ptr noundef %61, ptr noundef %62)
  store ptr %63, ptr %25, align 8, !tbaa !4
  %64 = load ptr, ptr %25, align 8, !tbaa !4
  %65 = call zeroext i8 @l_Lean_Expr_isApp(ptr noundef %64)
  store i8 %65, ptr %26, align 1, !tbaa !10
  %66 = load i8, ptr %26, align 1, !tbaa !10
  %67 = zext i8 %66 to i32
  %68 = icmp eq i32 %67, 0
  br i1 %68, label %69, label %83

69:                                               ; preds = %57
  call void @llvm.lifetime.start.p0(i64 8, ptr %27) #7
  call void @llvm.lifetime.start.p0(i64 8, ptr %28) #7
  %70 = load ptr, ptr %25, align 8, !tbaa !4
  call void @lean_dec(ptr noundef %70)
  %71 = load ptr, ptr %24, align 8, !tbaa !4
  call void @lean_dec(ptr noundef %71)
  %72 = load ptr, ptr %14, align 8, !tbaa !4
  call void @lean_dec(ptr noundef %72)
  %73 = call ptr @lean_box(i64 noundef 0)
  store ptr %73, ptr %27, align 8, !tbaa !4
  %74 = load ptr, ptr %13, align 8, !tbaa !4
  %75 = load ptr, ptr %27, align 8, !tbaa !4
  %76 = load ptr, ptr %17, align 8, !tbaa !4
  %77 = load ptr, ptr %18, align 8, !tbaa !4
  %78 = load ptr, ptr %19, align 8, !tbaa !4
  %79 = load ptr, ptr %20, align 8, !tbaa !4
  %80 = load ptr, ptr %21, align 8, !tbaa !4
  %81 = call ptr @lean_apply_6(ptr noundef %74, ptr noundef %75, ptr noundef %76, ptr noundef %77, ptr noundef %78, ptr noundef %79, ptr noundef %80)
  store ptr %81, ptr %28, align 8, !tbaa !4
  %82 = load ptr, ptr %28, align 8, !tbaa !4
  store ptr %82, ptr %11, align 8
  store i32 1, ptr %29, align 4
  call void @llvm.lifetime.end.p0(i64 8, ptr %28) #7
  call void @llvm.lifetime.end.p0(i64 8, ptr %27) #7
  br label %144

83:                                               ; preds = %57
  call void @llvm.lifetime.start.p0(i64 8, ptr %30) #7
  call void @llvm.lifetime.start.p0(i64 1, ptr %31) #7
  %84 = load ptr, ptr %25, align 8, !tbaa !4
  %85 = call ptr @lean_box(i64 noundef 0)
  %86 = call ptr @l_Lean_Expr_appFnCleanup(ptr noundef %84, ptr noundef %85)
  store ptr %86, ptr %30, align 8, !tbaa !4
  %87 = load ptr, ptr %30, align 8, !tbaa !4
  %88 = call zeroext i8 @l_Lean_Expr_isApp(ptr noundef %87)
  store i8 %88, ptr %31, align 1, !tbaa !10
  %89 = load i8, ptr %31, align 1, !tbaa !10
  %90 = zext i8 %89 to i32
  %91 = icmp eq i32 %90, 0
  br i1 %91, label %92, label %106

92:                                               ; preds = %83
  call void @llvm.lifetime.start.p0(i64 8, ptr %32) #7
  call void @llvm.lifetime.start.p0(i64 8, ptr %33) #7
  %93 = load ptr, ptr %30, align 8, !tbaa !4
  call void @lean_dec(ptr noundef %93)
  %94 = load ptr, ptr %24, align 8, !tbaa !4
  call void @lean_dec(ptr noundef %94)
  %95 = load ptr, ptr %14, align 8, !tbaa !4
  call void @lean_dec(ptr noundef %95)
  %96 = call ptr @lean_box(i64 noundef 0)
  store ptr %96, ptr %32, align 8, !tbaa !4
  %97 = load ptr, ptr %13, align 8, !tbaa !4
  %98 = load ptr, ptr %32, align 8, !tbaa !4
  %99 = load ptr, ptr %17, align 8, !tbaa !4
  %100 = load ptr, ptr %18, align 8, !tbaa !4
  %101 = load ptr, ptr %19, align 8, !tbaa !4
  %102 = load ptr, ptr %20, align 8, !tbaa !4
  %103 = load ptr, ptr %21, align 8, !tbaa !4
  %104 = call ptr @lean_apply_6(ptr noundef %97, ptr noundef %98, ptr noundef %99, ptr noundef %100, ptr noundef %101, ptr noundef %102, ptr noundef %103)
  store ptr %104, ptr %33, align 8, !tbaa !4
  %105 = load ptr, ptr %33, align 8, !tbaa !4
  store ptr %105, ptr %11, align 8
  store i32 1, ptr %29, align 4
  call void @llvm.lifetime.end.p0(i64 8, ptr %33) #7
  call void @llvm.lifetime.end.p0(i64 8, ptr %32) #7
  br label %143

106:                                              ; preds = %83
  call void @llvm.lifetime.start.p0(i64 8, ptr %34) #7
  call void @llvm.lifetime.start.p0(i64 8, ptr %35) #7
  call void @llvm.lifetime.start.p0(i64 1, ptr %36) #7
  %107 = load ptr, ptr %30, align 8, !tbaa !4
  %108 = call ptr @lean_box(i64 noundef 0)
  %109 = call ptr @l_Lean_Expr_appFnCleanup(ptr noundef %107, ptr noundef %108)
  store ptr %109, ptr %34, align 8, !tbaa !4
  %110 = load ptr, ptr @l_Lean_Elab_Tactic_BVDecide_Frontend_Normalize_bv__and___lambda__3___closed__17, align 8, !tbaa !4
  store ptr %110, ptr %35, align 8, !tbaa !4
  %111 = load ptr, ptr %34, align 8, !tbaa !4
  %112 = load ptr, ptr %35, align 8, !tbaa !4
  %113 = call zeroext i8 @l_Lean_Expr_isConstOf(ptr noundef %111, ptr noundef %112)
  store i8 %113, ptr %36, align 1, !tbaa !10
  %114 = load ptr, ptr %34, align 8, !tbaa !4
  call void @lean_dec(ptr noundef %114)
  %115 = load i8, ptr %36, align 1, !tbaa !10
  %116 = zext i8 %115 to i32
  %117 = icmp eq i32 %116, 0
  br i1 %117, label %118, label %131

118:                                              ; preds = %106
  call void @llvm.lifetime.start.p0(i64 8, ptr %37) #7
  call void @llvm.lifetime.start.p0(i64 8, ptr %38) #7
  %119 = load ptr, ptr %24, align 8, !tbaa !4
  call void @lean_dec(ptr noundef %119)
  %120 = load ptr, ptr %14, align 8, !tbaa !4
  call void @lean_dec(ptr noundef %120)
  %121 = call ptr @lean_box(i64 noundef 0)
  store ptr %121, ptr %37, align 8, !tbaa !4
  %122 = load ptr, ptr %13, align 8, !tbaa !4
  %123 = load ptr, ptr %37, align 8, !tbaa !4
  %124 = load ptr, ptr %17, align 8, !tbaa !4
  %125 = load ptr, ptr %18, align 8, !tbaa !4
  %126 = load ptr, ptr %19, align 8, !tbaa !4
  %127 = load ptr, ptr %20, align 8, !tbaa !4
  %128 = load ptr, ptr %21, align 8, !tbaa !4
  %129 = call ptr @lean_apply_6(ptr noundef %122, ptr noundef %123, ptr noundef %124, ptr noundef %125, ptr noundef %126, ptr noundef %127, ptr noundef %128)
  store ptr %129, ptr %38, align 8, !tbaa !4
  %130 = load ptr, ptr %38, align 8, !tbaa !4
  store ptr %130, ptr %11, align 8
  store i32 1, ptr %29, align 4
  call void @llvm.lifetime.end.p0(i64 8, ptr %38) #7
  call void @llvm.lifetime.end.p0(i64 8, ptr %37) #7
  br label %142

131:                                              ; preds = %106
  call void @llvm.lifetime.start.p0(i64 8, ptr %39) #7
  %132 = load ptr, ptr %14, align 8, !tbaa !4
  %133 = load ptr, ptr %13, align 8, !tbaa !4
  %134 = load ptr, ptr %24, align 8, !tbaa !4
  %135 = load ptr, ptr %17, align 8, !tbaa !4
  %136 = load ptr, ptr %18, align 8, !tbaa !4
  %137 = load ptr, ptr %19, align 8, !tbaa !4
  %138 = load ptr, ptr %20, align 8, !tbaa !4
  %139 = load ptr, ptr %21, align 8, !tbaa !4
  %140 = call ptr @l_Lean_Elab_Tactic_BVDecide_Frontend_Normalize_bv__add___lambda__21(ptr noundef %132, ptr noundef %133, ptr noundef %134, ptr noundef %135, ptr noundef %136, ptr noundef %137, ptr noundef %138, ptr noundef %139)
  store ptr %140, ptr %39, align 8, !tbaa !4
  %141 = load ptr, ptr %39, align 8, !tbaa !4
  store ptr %141, ptr %11, align 8
  store i32 1, ptr %29, align 4
  call void @llvm.lifetime.end.p0(i64 8, ptr %39) #7
  br label %142

142:                                              ; preds = %131, %118
  call void @llvm.lifetime.end.p0(i64 1, ptr %36) #7
  call void @llvm.lifetime.end.p0(i64 8, ptr %35) #7
  call void @llvm.lifetime.end.p0(i64 8, ptr %34) #7
  br label %143

143:                                              ; preds = %142, %92
  call void @llvm.lifetime.end.p0(i64 1, ptr %31) #7
  call void @llvm.lifetime.end.p0(i64 8, ptr %30) #7
  br label %144

144:                                              ; preds = %143, %69
  call void @llvm.lifetime.end.p0(i64 1, ptr %26) #7
  call void @llvm.lifetime.end.p0(i64 8, ptr %25) #7
  call void @llvm.lifetime.end.p0(i64 8, ptr %24) #7
  br label %145

145:                                              ; preds = %144, %44
  %146 = load ptr, ptr %11, align 8
  ret ptr %146
}