; Function Attrs: nounwind uwtable
define ptr @l_Lean_Elab_Tactic_BVDecide_Frontend_Normalize_bv__add___lambda__22(i8 noundef zeroext %0, ptr noundef %1, ptr noundef %2, ptr noundef %3, ptr readnone captures(none) %4, ptr noundef %5, ptr noundef %6, ptr noundef %7, ptr noundef %8, ptr noundef %9) local_unnamed_addr #0 {
  %11 = icmp eq i8 %0, 0
  br i1 %11, label %12, label %32

12:                                               ; preds = %10
  %13 = ptrtoint ptr %3 to i64
  %14 = and i64 %13, 1
  %.not102 = icmp eq i64 %14, 0
  br i1 %.not102, label %15, label %lean_dec.exit73

15:                                               ; preds = %12
  %16 = load i32, ptr %3, align 4, !tbaa !8
  %17 = icmp sgt i32 %16, 1
  br i1 %17, label %18, label %20, !prof !11

18:                                               ; preds = %15
  %19 = add nsw i32 %16, -1
  store i32 %19, ptr %3, align 4, !tbaa !8
  br label %lean_dec.exit73

20:                                               ; preds = %15
  %.not.i = icmp eq i32 %16, 0
  br i1 %.not.i, label %lean_dec.exit73, label %21

21:                                               ; preds = %20
  tail call void @lean_dec_ref_cold(ptr noundef nonnull %3) #5
  br label %lean_dec.exit73

lean_dec.exit73:                                  ; preds = %21, %20, %18, %12
  %22 = ptrtoint ptr %2 to i64
  %23 = and i64 %22, 1
  %.not103 = icmp eq i64 %23, 0
  br i1 %.not103, label %24, label %lean_dec.exit72

24:                                               ; preds = %lean_dec.exit73
  %25 = load i32, ptr %2, align 4, !tbaa !8
  %26 = icmp sgt i32 %25, 1
  br i1 %26, label %27, label %29, !prof !11

27:                                               ; preds = %24
  %28 = add nsw i32 %25, -1
  store i32 %28, ptr %2, align 4, !tbaa !8
  br label %lean_dec.exit72

29:                                               ; preds = %24
  %.not.i74 = icmp eq i32 %25, 0
  br i1 %.not.i74, label %lean_dec.exit72, label %30

30:                                               ; preds = %29
  tail call void @lean_dec_ref_cold(ptr noundef nonnull %2) #5
  br label %lean_dec.exit72

lean_dec.exit72:                                  ; preds = %30, %29, %27, %lean_dec.exit73
  %31 = tail call ptr @lean_apply_6(ptr noundef %1, ptr noundef nonnull inttoptr (i64 1 to ptr), ptr noundef %5, ptr noundef %6, ptr noundef %7, ptr noundef %8, ptr noundef %9) #5
  br label %135

32:                                               ; preds = %10
  %33 = tail call ptr @l_Lean_Expr_appArg(ptr noundef %3, ptr noundef nonnull inttoptr (i64 1 to ptr)) #5
  %34 = tail call ptr @l_Lean_Expr_appFnCleanup(ptr noundef %3, ptr noundef nonnull inttoptr (i64 1 to ptr)) #5
  %35 = tail call zeroext i8 @l_Lean_Expr_isApp(ptr noundef %34) #5
  %36 = icmp eq i8 %35, 0
  br i1 %36, label %37, label %66

37:                                               ; preds = %32
  %38 = ptrtoint ptr %34 to i64
  %39 = and i64 %38, 1
  %.not99 = icmp eq i64 %39, 0
  br i1 %.not99, label %40, label %lean_dec.exit71

40:                                               ; preds = %37
  %41 = load i32, ptr %34, align 4, !tbaa !8
  %42 = icmp sgt i32 %41, 1
  br i1 %42, label %43, label %45, !prof !11

43:                                               ; preds = %40
  %44 = add nsw i32 %41, -1
  store i32 %44, ptr %34, align 4, !tbaa !8
  br label %lean_dec.exit71

45:                                               ; preds = %40
  %.not.i76 = icmp eq i32 %41, 0
  br i1 %.not.i76, label %lean_dec.exit71, label %46

46:                                               ; preds = %45
  tail call void @lean_dec_ref_cold(ptr noundef nonnull %34) #5
  br label %lean_dec.exit71

lean_dec.exit71:                                  ; preds = %46, %45, %43, %37
  %47 = ptrtoint ptr %33 to i64
  %48 = and i64 %47, 1
  %.not100 = icmp eq i64 %48, 0
  br i1 %.not100, label %49, label %lean_dec.exit70

49:                                               ; preds = %lean_dec.exit71
  %50 = load i32, ptr %33, align 4, !tbaa !8
  %51 = icmp sgt i32 %50, 1
  br i1 %51, label %52, label %54, !prof !11

52:                                               ; preds = %49
  %53 = add nsw i32 %50, -1
  store i32 %53, ptr %33, align 4, !tbaa !8
  br label %lean_dec.exit70

54:                                               ; preds = %49
  %.not.i78 = icmp eq i32 %50, 0
  br i1 %.not.i78, label %lean_dec.exit70, label %55

55:                                               ; preds = %54
  tail call void @lean_dec_ref_cold(ptr noundef nonnull %33) #5
  br label %lean_dec.exit70

lean_dec.exit70:                                  ; preds = %55, %54, %52, %lean_dec.exit71
  %56 = ptrtoint ptr %2 to i64
  %57 = and i64 %56, 1
  %.not101 = icmp eq i64 %57, 0
  br i1 %.not101, label %58, label %lean_dec.exit69

58:                                               ; preds = %lean_dec.exit70
  %59 = load i32, ptr %2, align 4, !tbaa !8
  %60 = icmp sgt i32 %59, 1
  br i1 %60, label %61, label %63, !prof !11

61:                                               ; preds = %58
  %62 = add nsw i32 %59, -1
  store i32 %62, ptr %2, align 4, !tbaa !8
  br label %lean_dec.exit69

63:                                               ; preds = %58
  %.not.i80 = icmp eq i32 %59, 0
  br i1 %.not.i80, label %lean_dec.exit69, label %64

64:                                               ; preds = %63
  tail call void @lean_dec_ref_cold(ptr noundef nonnull %2) #5
  br label %lean_dec.exit69

lean_dec.exit69:                                  ; preds = %64, %63, %61, %lean_dec.exit70
  %65 = tail call ptr @lean_apply_6(ptr noundef %1, ptr noundef nonnull inttoptr (i64 1 to ptr), ptr noundef %5, ptr noundef %6, ptr noundef %7, ptr noundef %8, ptr noundef %9) #5
  br label %135

66:                                               ; preds = %32
  %67 = tail call ptr @l_Lean_Expr_appFnCleanup(ptr noundef %34, ptr noundef nonnull inttoptr (i64 1 to ptr)) #5
  %68 = tail call zeroext i8 @l_Lean_Expr_isApp(ptr noundef %67) #5
  %69 = icmp eq i8 %68, 0
  br i1 %69, label %70, label %99

70:                                               ; preds = %66
  %71 = ptrtoint ptr %67 to i64
  %72 = and i64 %71, 1
  %.not96 = icmp eq i64 %72, 0
  br i1 %.not96, label %73, label %lean_dec.exit68

73:                                               ; preds = %70
  %74 = load i32, ptr %67, align 4, !tbaa !8
  %75 = icmp sgt i32 %74, 1
  br i1 %75, label %76, label %78, !prof !11

76:                                               ; preds = %73
  %77 = add nsw i32 %74, -1
  store i32 %77, ptr %67, align 4, !tbaa !8
  br label %lean_dec.exit68

78:                                               ; preds = %73
  %.not.i82 = icmp eq i32 %74, 0
  br i1 %.not.i82, label %lean_dec.exit68, label %79

79:                                               ; preds = %78
  tail call void @lean_dec_ref_cold(ptr noundef nonnull %67) #5
  br label %lean_dec.exit68

lean_dec.exit68:                                  ; preds = %79, %78, %76, %70
  %80 = ptrtoint ptr %33 to i64
  %81 = and i64 %80, 1
  %.not97 = icmp eq i64 %81, 0
  br i1 %.not97, label %82, label %lean_dec.exit67

82:                                               ; preds = %lean_dec.exit68
  %83 = load i32, ptr %33, align 4, !tbaa !8
  %84 = icmp sgt i32 %83, 1
  br i1 %84, label %85, label %87, !prof !11

85:                                               ; preds = %82
  %86 = add nsw i32 %83, -1
  store i32 %86, ptr %33, align 4, !tbaa !8
  br label %lean_dec.exit67

87:                                               ; preds = %82
  %.not.i84 = icmp eq i32 %83, 0
  br i1 %.not.i84, label %lean_dec.exit67, label %88

88:                                               ; preds = %87
  tail call void @lean_dec_ref_cold(ptr noundef nonnull %33) #5
  br label %lean_dec.exit67

lean_dec.exit67:                                  ; preds = %88, %87, %85, %lean_dec.exit68
  %89 = ptrtoint ptr %2 to i64
  %90 = and i64 %89, 1
  %.not98 = icmp eq i64 %90, 0
  br i1 %.not98, label %91, label %lean_dec.exit66

91:                                               ; preds = %lean_dec.exit67
  %92 = load i32, ptr %2, align 4, !tbaa !8
  %93 = icmp sgt i32 %92, 1
  br i1 %93, label %94, label %96, !prof !11

94:                                               ; preds = %91
  %95 = add nsw i32 %92, -1
  store i32 %95, ptr %2, align 4, !tbaa !8
  br label %lean_dec.exit66

96:                                               ; preds = %91
  %.not.i86 = icmp eq i32 %92, 0
  br i1 %.not.i86, label %lean_dec.exit66, label %97

97:                                               ; preds = %96
  tail call void @lean_dec_ref_cold(ptr noundef nonnull %2) #5
  br label %lean_dec.exit66

lean_dec.exit66:                                  ; preds = %97, %96, %94, %lean_dec.exit67
  %98 = tail call ptr @lean_apply_6(ptr noundef %1, ptr noundef nonnull inttoptr (i64 1 to ptr), ptr noundef %5, ptr noundef %6, ptr noundef %7, ptr noundef %8, ptr noundef %9) #5
  br label %135

99:                                               ; preds = %66
  %100 = tail call ptr @l_Lean_Expr_appFnCleanup(ptr noundef %67, ptr noundef nonnull inttoptr (i64 1 to ptr)) #5
  %101 = load ptr, ptr @l_Lean_Elab_Tactic_BVDecide_Frontend_Normalize_bv__and___lambda__3___closed__17, align 8, !tbaa !4
  %102 = tail call zeroext i8 @l_Lean_Expr_isConstOf(ptr noundef %100, ptr noundef %101) #5
  %103 = ptrtoint ptr %100 to i64
  %104 = and i64 %103, 1
  %.not = icmp eq i64 %104, 0
  br i1 %.not, label %105, label %lean_dec.exit65

105:                                              ; preds = %99
  %106 = load i32, ptr %100, align 4, !tbaa !8
  %107 = icmp sgt i32 %106, 1
  br i1 %107, label %108, label %110, !prof !11

108:                                              ; preds = %105
  %109 = add nsw i32 %106, -1
  store i32 %109, ptr %100, align 4, !tbaa !8
  br label %lean_dec.exit65

110:                                              ; preds = %105
  %.not.i88 = icmp eq i32 %106, 0
  br i1 %.not.i88, label %lean_dec.exit65, label %111

111:                                              ; preds = %110
  tail call void @lean_dec_ref_cold(ptr noundef nonnull %100) #5
  br label %lean_dec.exit65

lean_dec.exit65:                                  ; preds = %111, %110, %108, %99
  %112 = icmp eq i8 %102, 0
  br i1 %112, label %113, label %133

113:                                              ; preds = %lean_dec.exit65
  %114 = ptrtoint ptr %33 to i64
  %115 = and i64 %114, 1
  %.not94 = icmp eq i64 %115, 0
  br i1 %.not94, label %116, label %lean_dec.exit64

116:                                              ; preds = %113
  %117 = load i32, ptr %33, align 4, !tbaa !8
  %118 = icmp sgt i32 %117, 1
  br i1 %118, label %119, label %121, !prof !11

119:                                              ; preds = %116
  %120 = add nsw i32 %117, -1
  store i32 %120, ptr %33, align 4, !tbaa !8
  br label %lean_dec.exit64

121:                                              ; preds = %116
  %.not.i90 = icmp eq i32 %117, 0
  br i1 %.not.i90, label %lean_dec.exit64, label %122

122:                                              ; preds = %121
  tail call void @lean_dec_ref_cold(ptr noundef nonnull %33) #5
  br label %lean_dec.exit64

lean_dec.exit64:                                  ; preds = %122, %121, %119, %113
  %123 = ptrtoint ptr %2 to i64
  %124 = and i64 %123, 1
  %.not95 = icmp eq i64 %124, 0
  br i1 %.not95, label %125, label %lean_dec.exit

125:                                              ; preds = %lean_dec.exit64
  %126 = load i32, ptr %2, align 4, !tbaa !8
  %127 = icmp sgt i32 %126, 1
  br i1 %127, label %128, label %130, !prof !11

128:                                              ; preds = %125
  %129 = add nsw i32 %126, -1
  store i32 %129, ptr %2, align 4, !tbaa !8
  br label %lean_dec.exit

130:                                              ; preds = %125
  %.not.i92 = icmp eq i32 %126, 0
  br i1 %.not.i92, label %lean_dec.exit, label %131

131:                                              ; preds = %130
  tail call void @lean_dec_ref_cold(ptr noundef nonnull %2) #5
  br label %lean_dec.exit

lean_dec.exit:                                    ; preds = %131, %130, %128, %lean_dec.exit64
  %132 = tail call ptr @lean_apply_6(ptr noundef %1, ptr noundef nonnull inttoptr (i64 1 to ptr), ptr noundef %5, ptr noundef %6, ptr noundef %7, ptr noundef %8, ptr noundef %9) #5
  br label %135

133:                                              ; preds = %lean_dec.exit65
  %134 = tail call ptr @l_Lean_Elab_Tactic_BVDecide_Frontend_Normalize_bv__add___lambda__21(ptr noundef %2, ptr noundef %1, ptr noundef %33, ptr noundef %5, ptr noundef %6, ptr noundef %7, ptr noundef %8, ptr noundef %9)
  br label %135

135:                                              ; preds = %lean_dec.exit69, %lean_dec.exit, %133, %lean_dec.exit66, %lean_dec.exit72
  %.0 = phi ptr [ %31, %lean_dec.exit72 ], [ %65, %lean_dec.exit69 ], [ %98, %lean_dec.exit66 ], [ %132, %lean_dec.exit ], [ %134, %133 ]
  ret ptr %.0
}